target datalayout = "e-m:e-p270:32:32-p271:32:32-p272:64:64-i64:64-i128:128-f80:128-n8:16:32:64-S128"
target triple = "x86_64-pc-linux-gnu"

@.str.399 = private unnamed_addr constant [19 x i8] c"Couchbase Protocol\00", align 1
@.str.400 = private unnamed_addr constant [10 x i8] c"Couchbase\00", align 1
@.str.401 = private unnamed_addr constant [10 x i8] c"couchbase\00", align 1
@proto_couchbase = internal global i32 0, align 4
@couchbase_handle = internal global ptr null, align 8
@.str.402 = private unnamed_addr constant [15 x i8] c"desegment_pdus\00", align 1
@.str.403 = private unnamed_addr constant [47 x i8] c"Reassemble PDUs spanning multiple TCP segments\00", align 1
@.str.404 = private unnamed_addr constant [206 x i8] c"Whether the Couchbase dissector should reassemble PDUs spanning multiple TCP segments. To use this option, you must also enable \22Allow subdissectors to reassemble TCP streams\22 in the TCP protocol settings.\00", align 1
@couchbase_desegment_body = internal global i8 1, align 1
@.str.405 = private unnamed_addr constant [9 x i8] c"tls.port\00", align 1
@.str.406 = private unnamed_addr constant [18 x i8] c"SSL/TLS Data Port\00", align 1
@.str.407 = private unnamed_addr constant [66 x i8] c"The port used for communicating with the data service via SSL/TLS\00", align 1
@couchbase_ssl_port_pref = internal global i32 11207, align 4
@.str.408 = private unnamed_addr constant [9 x i8] c"ssl_port\00", align 1

; Function Attrs: null_pointer_is_valid sspstrong uwtable
define hidden void @proto_register_couchbase() #0 {
  %1 = alloca ptr, align 8
  %2 = alloca ptr, align 8
  call void @llvm.lifetime.start.p0(i64 8, ptr %1) #7
  call void @llvm.lifetime.start.p0(i64 8, ptr %2) #7
  %3 = call i32 @proto_register_protocol(ptr noundef @.str.399, ptr noundef @.str.400, ptr noundef @.str.401)
  store i32 %3, ptr @proto_couchbase, align 4
  %4 = load i32, ptr @proto_couchbase, align 4
  call void @proto_register_field_array(i32 noundef %4, ptr noundef @proto_register_couchbase.hf, i32 noundef 177)
  call void @proto_register_subtree_array(ptr noundef @proto_register_couchbase.ett, i32 noundef 15)
  %5 = load i32, ptr @proto_couchbase, align 4
  %6 = call ptr @expert_register_protocol(i32 noundef %5)
  store ptr %6, ptr %2, align 8
  %7 = load ptr, ptr %2, align 8
  call void @expert_register_field_array(ptr noundef %7, ptr noundef @proto_register_couchbase.ei, i32 noundef 18)
  %8 = load i32, ptr @proto_couchbase, align 4
  %9 = call ptr @prefs_register_protocol(i32 noundef %8, ptr noundef @proto_reg_handoff_couchbase)
  store ptr %9, ptr %1, align 8
  %10 = load i32, ptr @proto_couchbase, align 4
  %11 = call ptr @register_dissector(ptr noundef @.str.401, ptr noundef @dissect_couchbase_pdu, i32 noundef %10)
  store ptr %11, ptr @couchbase_handle, align 8
  %12 = load ptr, ptr %1, align 8
  call void @prefs_register_bool_preference(ptr noundef %12, ptr noundef @.str.402, ptr noundef @.str.403, ptr noundef @.str.404, ptr noundef @couchbase_desegment_body)
  %13 = load ptr, ptr %1, align 8
  call void @prefs_register_uint_preference(ptr noundef %13, ptr noundef @.str.405, ptr noundef @.str.406, ptr noundef @.str.407, i32 noundef 10, ptr noundef @couchbase_ssl_port_pref)
  %14 = load ptr, ptr %1, align 8
  call void @prefs_register_obsolete_preference(ptr noundef %14, ptr noundef @.str.408)
  call void @llvm.lifetime.end.p0(i64 8, ptr %2) #7
  call void @llvm.lifetime.end.p0(i64 8, ptr %1) #7
  ret void
}