; Function Attrs: null_pointer_is_valid sspstrong uwtable
define hidden void @proto_register_couchbase() local_unnamed_addr #0 {
  %1 = tail call i32 @proto_register_protocol(ptr noundef nonnull @.str.399, ptr noundef nonnull @.str.400, ptr noundef nonnull @.str.401)
  store i32 %1, ptr @proto_couchbase, align 4
  tail call void @proto_register_field_array(i32 noundef %1, ptr noundef nonnull @proto_register_couchbase.hf, i32 noundef 177)
  tail call void @proto_register_subtree_array(ptr noundef nonnull @proto_register_couchbase.ett, i32 noundef 15)
  %2 = load i32, ptr @proto_couchbase, align 4
  %3 = tail call ptr @expert_register_protocol(i32 noundef %2)
  tail call void @expert_register_field_array(ptr noundef %3, ptr noundef nonnull @proto_register_couchbase.ei, i32 noundef 18)
  %4 = load i32, ptr @proto_couchbase, align 4
  %5 = tail call ptr @prefs_register_protocol(i32 noundef %4, ptr noundef nonnull @proto_reg_handoff_couchbase)
  %6 = load i32, ptr @proto_couchbase, align 4
  %7 = tail call ptr @register_dissector(ptr noundef nonnull @.str.401, ptr noundef nonnull @dissect_couchbase_pdu, i32 noundef %6)
  store ptr %7, ptr @couchbase_handle, align 8
  tail call void @prefs_register_bool_preference(ptr noundef %5, ptr noundef nonnull @.str.402, ptr noundef nonnull @.str.403, ptr noundef nonnull @.str.404, ptr noundef nonnull @couchbase_desegment_body)
  tail call void @prefs_register_uint_preference(ptr noundef %5, ptr noundef nonnull @.str.405, ptr noundef nonnull @.str.406, ptr noundef nonnull @.str.407, i32 noundef 10, ptr noundef nonnull @couchbase_ssl_port_pref)
  tail call void @prefs_register_obsolete_preference(ptr noundef %5, ptr noundef nonnull @.str.408)
  ret void
}